target datalayout = "e-m:e-p270:32:32-p271:32:32-p272:64:64-i64:64-i128:128-f80:128-n8:16:32:64-S128"
target triple = "x86_64-pc-linux-gnu"

%"struct.std::atomic" = type { %"struct.std::__atomic_base" }
%"struct.std::__atomic_base" = type { ptr }
%"class.llvm::function_ref" = type { ptr, i64 }
%"class.llvm::ManagedStaticBase" = type { %"struct.std::atomic", ptr, ptr }

@_ZL16CallbackFunction = internal global { %"struct.std::atomic", ptr, ptr } zeroinitializer, align 8

; Function Attrs: mustprogress nounwind uwtable
define linkonce_odr noundef i32 @_ZStanSt12memory_orderSt23__memory_order_modifier(i32 noundef %0, i32 noundef %1) #0 comdat {
  %3 = alloca i32, align 4
  %4 = alloca i32, align 4
  store i32 %0, ptr %3, align 4
  store i32 %1, ptr %4, align 4
  %5 = load i32, ptr %3, align 4
  %6 = load i32, ptr %4, align 4
  %7 = and i32 %5, %6
  ret i32 %7
}

; Function Attrs: mustprogress nounwind uwtable
define linkonce_odr hidden noundef ptr @_ZNKSt6atomicIPvE4loadESt12memory_order(ptr noundef nonnull align 8 dereferenceable(8) %0, i32 noundef %1) #0 comdat align 2 {
  %3 = alloca ptr, align 8
  %4 = alloca i32, align 4
  %5 = alloca i32, align 4
  %6 = alloca ptr, align 8
  %7 = alloca ptr, align 8
  %8 = alloca i32, align 4
  store ptr %0, ptr %7, align 8
  store i32 %1, ptr %8, align 4
  %9 = load ptr, ptr %7, align 8
  %10 = getelementptr inbounds nuw %"struct.std::atomic", ptr %9, i32 0, i32 0
  %11 = load i32, ptr %8, align 4
  store ptr %10, ptr %3, align 8
  store i32 %11, ptr %4, align 4
  %12 = load ptr, ptr %3, align 8
  %13 = load i32, ptr %4, align 4
  %14 = call noundef i32 @_ZStanSt12memory_orderSt23__memory_order_modifier(i32 noundef %13, i32 noundef 65535)
  store i32 %14, ptr %5, align 4
  %15 = load i32, ptr %4, align 4
  switch i32 %15, label %16 [
    i32 1, label %18
    i32 2, label %18
    i32 5, label %20
  ]

16:                                               ; preds = %2
  %17 = load atomic i64, ptr %12 monotonic, align 8
  store i64 %17, ptr %6, align 8
  br label %22

18:                                               ; preds = %2, %2
  %19 = load atomic i64, ptr %12 acquire, align 8
  store i64 %19, ptr %6, align 8
  br label %22

20:                                               ; preds = %2
  %21 = load atomic i64, ptr %12 seq_cst, align 8
  store i64 %21, ptr %6, align 8
  br label %22

22:                                               ; preds = %20, %18, %16
  %23 = load ptr, ptr %6, align 8
  ret ptr %23
}

; Function Attrs: mustprogress nounwind uwtable
define internal noundef nonnull align 8 dereferenceable(752) ptr @_ZN4llvm13ManagedStaticINS_2cl3optINS_12function_refIFvRNS_12RecordKeeperERNS_11raw_ostreamEEEELb0ENS1_6parserIS9_EEEEN12_GLOBAL__N_111OptCreatorTENS_14object_deleterISC_EEEdeEv(ptr noundef nonnull align 8 dereferenceable(24) %0) #0 align 2 {
  %2 = alloca ptr, align 8
  %3 = alloca ptr, align 8
  store ptr %0, ptr %2, align 8
  %4 = load ptr, ptr %2, align 8
  %5 = getelementptr inbounds nuw %"class.llvm::ManagedStaticBase", ptr %4, i32 0, i32 0
  %6 = call noundef ptr @_ZNKSt6atomicIPvE4loadESt12memory_order(ptr noundef nonnull align 8 dereferenceable(8) %5, i32 noundef 2) #9
  store ptr %6, ptr %3, align 8
  %7 = load ptr, ptr %3, align 8
  %8 = icmp ne ptr %7, null
  br i1 %8, label %10, label %9

9:                                                ; preds = %1
  call void @_ZNK4llvm17ManagedStaticBase21RegisterManagedStaticEPFPvvEPFvS1_E(ptr noundef nonnull align 8 dereferenceable(24) %4, ptr noundef @_ZN12_GLOBAL__N_111OptCreatorT4callEv, ptr noundef @_ZN4llvm14object_deleterINS_2cl3optINS_12function_refIFvRNS_12RecordKeeperERNS_11raw_ostreamEEEELb0ENS1_6parserIS9_EEEEE4callEPv)
  br label %10

10:                                               ; preds = %9, %1
  %11 = getelementptr inbounds nuw %"class.llvm::ManagedStaticBase", ptr %4, i32 0, i32 0
  %12 = call noundef ptr @_ZNKSt6atomicIPvE4loadESt12memory_order(ptr noundef nonnull align 8 dereferenceable(8) %11, i32 noundef 0) #9
  ret ptr %12
}

; Function Attrs: mustprogress nounwind uwtable
define linkonce_odr hidden void @_ZNK4llvm12function_refIFvRNS_12RecordKeeperERNS_11raw_ostreamEEEclES2_S4_(ptr noundef nonnull align 8 dereferenceable(16) %0, ptr noundef nonnull align 8 dereferenceable(232) %1, ptr noundef nonnull align 8 dereferenceable(48) %2) #0 comdat align 2 {
  %4 = alloca ptr, align 8
  %5 = alloca ptr, align 8
  %6 = alloca ptr, align 8
  store ptr %0, ptr %4, align 8
  store ptr %1, ptr %5, align 8
  store ptr %2, ptr %6, align 8
  %7 = load ptr, ptr %4, align 8
  %8 = getelementptr inbounds nuw %"class.llvm::function_ref", ptr %7, i32 0, i32 0
  %9 = load ptr, ptr %8, align 8
  %10 = getelementptr inbounds nuw %"class.llvm::function_ref", ptr %7, i32 0, i32 1
  %11 = load i64, ptr %10, align 8
  %12 = load ptr, ptr %5, align 8
  %13 = load ptr, ptr %6, align 8
  call void %9(i64 noundef %11, ptr noundef nonnull align 8 dereferenceable(232) %12, ptr noundef nonnull align 8 dereferenceable(48) %13)
  ret void
}

; Function Attrs: mustprogress nounwind uwtable
define linkonce_odr hidden noundef zeroext i1 @_ZNK4llvm12function_refIFvRNS_12RecordKeeperERNS_11raw_ostreamEEEcvbEv(ptr noundef nonnull align 8 dereferenceable(16) %0) #0 comdat align 2 {
  %2 = alloca ptr, align 8
  store ptr %0, ptr %2, align 8
  %3 = load ptr, ptr %2, align 8
  %4 = getelementptr inbounds nuw %"class.llvm::function_ref", ptr %3, i32 0, i32 0
  %5 = load ptr, ptr %4, align 8
  %6 = icmp ne ptr %5, null
  ret i1 %6
}

; Function Attrs: mustprogress nounwind uwtable
define linkonce_odr hidden noundef nonnull align 8 dereferenceable(16) ptr @_ZN4llvm2cl11opt_storageINS_12function_refIFvRNS_12RecordKeeperERNS_11raw_ostreamEEEELb0ELb1EE8getValueEv(ptr noundef nonnull align 8 dereferenceable(48) %0) #0 comdat align 2 {
  %2 = alloca ptr, align 8
  store ptr %0, ptr %2, align 8
  %3 = load ptr, ptr %2, align 8
  ret ptr %3
}

; Function Attrs: mustprogress nounwind uwtable
define internal noundef ptr @_ZN4llvm13ManagedStaticINS_2cl3optINS_12function_refIFvRNS_12RecordKeeperERNS_11raw_ostreamEEEELb0ENS1_6parserIS9_EEEEN12_GLOBAL__N_111OptCreatorTENS_14object_deleterISC_EEEptEv(ptr noundef nonnull align 8 dereferenceable(24) %0) #0 align 2 {
  %2 = alloca ptr, align 8
  store ptr %0, ptr %2, align 8
  %3 = load ptr, ptr %2, align 8
  %4 = call noundef nonnull align 8 dereferenceable(752) ptr @_ZN4llvm13ManagedStaticINS_2cl3optINS_12function_refIFvRNS_12RecordKeeperERNS_11raw_ostreamEEEELb0ENS1_6parserIS9_EEEEN12_GLOBAL__N_111OptCreatorTENS_14object_deleterISC_EEEdeEv(ptr noundef nonnull align 8 dereferenceable(24) %3)
  ret ptr %4
}

; Function Attrs: mustprogress nounwind uwtable
define dso_local noundef zeroext i1 @_ZN4llvm8TableGen7Emitter13ApplyCallbackERNS_12RecordKeeperERNS_11raw_ostreamE(ptr noundef nonnull align 8 dereferenceable(232) %0, ptr noundef nonnull align 8 dereferenceable(48) %1) #0 {
  %3 = alloca i1, align 1
  %4 = alloca ptr, align 8
  %5 = alloca ptr, align 8
  %6 = alloca %"class.llvm::function_ref", align 8
  store ptr %0, ptr %4, align 8
  store ptr %1, ptr %5, align 8
  %7 = call noundef ptr @_ZN4llvm13ManagedStaticINS_2cl3optINS_12function_refIFvRNS_12RecordKeeperERNS_11raw_ostreamEEEELb0ENS1_6parserIS9_EEEEN12_GLOBAL__N_111OptCreatorTENS_14object_deleterISC_EEEptEv(ptr noundef nonnull align 8 dereferenceable(24) @_ZL16CallbackFunction)
  %8 = getelementptr inbounds i8, ptr %7, i64 128
  %9 = call noundef nonnull align 8 dereferenceable(16) ptr @_ZN4llvm2cl11opt_storageINS_12function_refIFvRNS_12RecordKeeperERNS_11raw_ostreamEEEELb0ELb1EE8getValueEv(ptr noundef nonnull align 8 dereferenceable(48) %8)
  call void @llvm.memcpy.p0.p0.i64(ptr align 8 %6, ptr align 8 %9, i64 16, i1 false)
  %10 = call noundef zeroext i1 @_ZNK4llvm12function_refIFvRNS_12RecordKeeperERNS_11raw_ostreamEEEcvbEv(ptr noundef nonnull align 8 dereferenceable(16) %6)
  br i1 %10, label %12, label %11

11:                                               ; preds = %2
  store i1 true, ptr %3, align 1
  br label %15

12:                                               ; preds = %2
  %13 = load ptr, ptr %4, align 8
  %14 = load ptr, ptr %5, align 8
  call void @_ZNK4llvm12function_refIFvRNS_12RecordKeeperERNS_11raw_ostreamEEEclES2_S4_(ptr noundef nonnull align 8 dereferenceable(16) %6, ptr noundef nonnull align 8 dereferenceable(232) %13, ptr noundef nonnull align 8 dereferenceable(48) %14)
  store i1 false, ptr %3, align 1
  br label %15

15:                                               ; preds = %12, %11
  %16 = load i1, ptr %3, align 1
  ret i1 %16
}