; Function Attrs: mustprogress nounwind uwtable
define dso_local noundef zeroext i1 @_ZN4llvm8TableGen7Emitter13ApplyCallbackERNS_12RecordKeeperERNS_11raw_ostreamE(ptr noundef nonnull align 8 dereferenceable(232) %0, ptr noundef nonnull align 8 dereferenceable(48) %1) local_unnamed_addr #0 {
  %3 = load atomic i64, ptr @_ZL16CallbackFunction acquire, align 8
  %.not.i.i = icmp eq i64 %3, 0
  br i1 %.not.i.i, label %4, label %_ZN4llvm13ManagedStaticINS_2cl3optINS_12function_refIFvRNS_12RecordKeeperERNS_11raw_ostreamEEEELb0ENS1_6parserIS9_EEEEN12_GLOBAL__N_111OptCreatorTENS_14object_deleterISC_EEEptEv.exit

4:                                                ; preds = %2
  tail call void @_ZNK4llvm17ManagedStaticBase21RegisterManagedStaticEPFPvvEPFvS1_E(ptr noundef nonnull align 8 dereferenceable(24) @_ZL16CallbackFunction, ptr noundef nonnull @_ZN12_GLOBAL__N_111OptCreatorT4callEv, ptr noundef nonnull @_ZN4llvm14object_deleterINS_2cl3optINS_12function_refIFvRNS_12RecordKeeperERNS_11raw_ostreamEEEELb0ENS1_6parserIS9_EEEEE4callEPv) #12
  br label %_ZN4llvm13ManagedStaticINS_2cl3optINS_12function_refIFvRNS_12RecordKeeperERNS_11raw_ostreamEEEELb0ENS1_6parserIS9_EEEEN12_GLOBAL__N_111OptCreatorTENS_14object_deleterISC_EEEptEv.exit

_ZN4llvm13ManagedStaticINS_2cl3optINS_12function_refIFvRNS_12RecordKeeperERNS_11raw_ostreamEEEELb0ENS1_6parserIS9_EEEEN12_GLOBAL__N_111OptCreatorTENS_14object_deleterISC_EEEptEv.exit: ; preds = %2, %4
  %5 = load atomic i64, ptr @_ZL16CallbackFunction monotonic, align 8
  %.0.i2.i.i = inttoptr i64 %5 to ptr
  %6 = getelementptr inbounds nuw i8, ptr %.0.i2.i.i, i64 128
  %.sroa.0.0.copyload = load ptr, ptr %6, align 8
  %.not = icmp eq ptr %.sroa.0.0.copyload, null
  br i1 %.not, label %8, label %7

7:                                                ; preds = %_ZN4llvm13ManagedStaticINS_2cl3optINS_12function_refIFvRNS_12RecordKeeperERNS_11raw_ostreamEEEELb0ENS1_6parserIS9_EEEEN12_GLOBAL__N_111OptCreatorTENS_14object_deleterISC_EEEptEv.exit
  %.sroa.3.0..sroa_idx = getelementptr inbounds nuw i8, ptr %.0.i2.i.i, i64 136
  %.sroa.3.0.copyload = load i64, ptr %.sroa.3.0..sroa_idx, align 8
  tail call void %.sroa.0.0.copyload(i64 noundef %.sroa.3.0.copyload, ptr noundef nonnull align 8 dereferenceable(232) %0, ptr noundef nonnull align 8 dereferenceable(48) %1) #12
  br label %8

8:                                                ; preds = %_ZN4llvm13ManagedStaticINS_2cl3optINS_12function_refIFvRNS_12RecordKeeperERNS_11raw_ostreamEEEELb0ENS1_6parserIS9_EEEEN12_GLOBAL__N_111OptCreatorTENS_14object_deleterISC_EEEptEv.exit, %7
  ret i1 %.not
}